-----BEGIN RSA PRIVATE KEY-----
MIIEogIBAAKCAQEAuLeRJb5Zn/biJpGgQBAL+SlkUnDFZVUtFw1yAbP1qbRyW75j
7A/ES0ckx0NDAt2xMOcrBo7P9FNmuttJyRyLRNZffuUERBU+tryqPF+QrgBsqwJa
VcnuATBTSilqrPp6iGBqTlWgijFmNnRB5uMbebnXNheZfV9TaUrjZxKL9qOCT3aQ
SyVd/YGlwQpafQ3j2OW2rRaHigwq4AE/kviODMdhtFch/ceR5EaXufigkJ/PdCZ7
jzsb3F0JPTYjWRnS7HYxF+N7NUJZUNrj9sT6SzCGgDo+K0AzArzJdn7jZNJTdPlp
BJuEValznQ60Te4AGa4xjXsTzCfXAqHds4dXuwIDAQABAoIBAHPjj2gLtbU7soUa
Jl0q9CgdhPiIEgBSYRiucdGJs14GfRz8JTqsZa4I85UkqP06U3nn/sF9hhC25qPj
Arbvdpz4li9JxdRlM9R4J6H7Hw1b7NGZh019hBow1ICZ3XirKYc4XlnJNRCej48o
f1Q5Njq3ksM4KS9USEOuHV/EbhWNTUvmc+RqEw5TrKfLBKeapp+IC4lvOQs39OOd
n7jClcXlmRZpsb9bM3XIXfOx+RbH8ZBkU+5yzOMu+AEYxQ5gDVToEMr7Kl2l5R3v
/BPwwi1byheYmsj2LMamcDcN0mk6ZTLHSIA59aZ3dKhUvQ70dWL/sCTu5gPz7YeV
x/IpaykCgYEA20RdyaNZ7nRbWSzfakcPEYuw+tGCKDCePhrL7wJCCgcuCWMfWsYk
MnSfqq8GhMZ1t+vmXhLBJQZllSZNyT4r4so1ivvATy6XvpfUgtSzcLUXMC5UcbxH
jza3CXSg6akl7Jycyd3hU+OpC2ZOTaMlr9lo2PWmlhypTjHU1Cqn9CcCgYEA16l3
YI9jcAgFcA1pSk/J0r4U58e2pox1c5zHXYNksdsNsvg/bdpyGa26Sncs1B2wFRoZ
LMdtpZW4U1VYP0NvniePmrc+PbWc67nPDDPtE5NPU9IiDX/RxY5gTCxXcDQk5lL+
t6Xf46ZGizGRpx2h/U9TQR3fSyrnIWil8KYu2E0CgYB80Iv6zgvRW1bsikibPNvt
BvG1tTE8I4DQpXxVD5n8D147Zbthds0AE7cX+A3j4vz7t0MpZc+gfeWxY16AIe3l
aWnVNb2g1Ur36YHE/8Mtc0hB2v2iyKSLd3/11/gJSooWCIiPuMgdcsi1foUwWKCJ
W179scgkRyhxJJicNbPpnQKBgH1+Z7EQv1RZ1pA1vac4dsDjS1b0qBySb2YvPPP1
mYrFZVtXidFq5Cp9JYJfhv6HqAcfgLbF9c/9J52WdBucKj9l1fK53sYaAI5LOWho
bvSNLAQiqx4f2vmSuAabZuYr8az1brN/GqFmCHbHCXKtk63Lky65K06aUJToSGeY
zHmhAoGAZScNQ2bMluJ8S4kHxEprlsYT488KVyzJg1vhlhzOYnrzxrayDiNLI4n7
b+2R+TV42luqTMCmLcOxqAdG1sd0CdogIZ57NXmIoi9Ala9oTXkmzrwRB7oaKZFz
OzoPJF/j11ErVKpE/lc/65mEOFPJ7nxQaVqgV+Vi8DDtV5WTtk0=
-----END RSA PRIVATE KEY-----
Certificate:
    Data:
        Version: 3 (0x2)
        Serial Number: 1 (0x1)
        Signature Algorithm: sha1WithRSAEncryption
        Issuer: C=US, O=Developer Certificate, CN=*.dev Domain CA
        Validity
            Not Before: Mar 23 21:05:49 2012 GMT
            Not After : Aug  8 21:05:49 2039 GMT
        Subject: C=US, O=Developer Certificate, CN=*.dev
        Subject Public Key Info:
            Public Key Algorithm: rsaEncryption
            RSA Public Key: (2048 bit)
                Modulus (2048 bit):
                    00:b8:b7:91:25:be:59:9f:f6:e2:26:91:a0:40:10:
                    0b:f9:29:64:52:70:c5:65:55:2d:17:0d:72:01:b3:
                    f5:a9:b4:72:5b:be:63:ec:0f:c4:4b:47:24:c7:43:
                    43:02:dd:b1:30:e7:2b:06:8e:cf:f4:53:66:ba:db:
                    49:c9:1c:8b:44:d6:5f:7e:e5:04:44:15:3e:b6:bc:
                    aa:3c:5f:90:ae:00:6c:ab:02:5a:55:c9:ee:01:30:
                    53:4a:29:6a:ac:fa:7a:88:60:6a:4e:55:a0:8a:31:
                    66:36:74:41:e6:e3:1b:79:b9:d7:36:17:99:7d:5f:
                    53:69:4a:e3:67:12:8b:f6:a3:82:4f:76:90:4b:25:
                    5d:fd:81:a5:c1:0a:5a:7d:0d:e3:d8:e5:b6:ad:16:
                    87:8a:0c:2a:e0:01:3f:92:f8:8e:0c:c7:61:b4:57:
                    21:fd:c7:91:e4:46:97:b9:f8:a0:90:9f:cf:74:26:
                    7b:8f:3b:1b:dc:5d:09:3d:36:23:59:19:d2:ec:76:
                    31:17:e3:7b:35:42:59:50:da:e3:f6:c4:fa:4b:30:
                    86:80:3a:3e:2b:40:33:02:bc:c9:76:7e:e3:64:d2:
                    53:74:f9:69:04:9b:84:55:a9:73:9d:0e:b4:4d:ee:
                    00:19:ae:31:8d:7b:13:cc:27:d7:02:a1:dd:b3:87:
                    57:bb
                Exponent: 65537 (0x10001)
        X509v3 extensions:
            X509v3 Basic Constraints: 
                CA:FALSE
            Netscape Cert Type: 
                SSL Server
            Netscape Comment: 
                OpenSSL Generated Certificate
            X509v3 Subject Key Identifier: 
                2B:10:B6:C7:75:F6:8E:1B:2D:89:B7:B3:ED:32:30:D5:BE:D3:4D:A4
            X509v3 Authority Key Identifier: 
                keyid:3E:74:E7:42:DB:A0:66:82:40:02:34:30:C7:33:2A:11:60:E7:1D:23

            X509v3 Subject Alternative Name: 
                DNS:cotradeco.dev, DNS:*.cotradeco.dev, DNS:lllreptile.dev, DNS:*.lllreptile.dev, DNS:reptilesonline.dev, DNS:*.reptilesonline.dev, DNS:vistapetsupply.dev, DNS:*.vistapetsupply.dev
    Signature Algorithm: sha1WithRSAEncryption
        ba:68:b3:e0:57:f5:2d:95:c1:ab:f6:20:98:d2:82:0b:4c:06:
        09:3b:27:f9:ad:34:be:11:b1:d8:c3:7f:54:12:0b:6d:54:53:
        b4:b2:c9:80:49:b4:f4:7c:ad:5a:27:0a:fa:97:cd:33:6d:ff:
        de:51:ea:4b:e8:2a:7c:29:1a:db:11:7e:6f:b0:fb:b3:69:80:
        35:dc:0d:9e:ac:7f:e3:d1:c2:47:70:21:1c:19:75:c0:90:40:
        ad:fa:6f:25:c7:49:3a:f0:00:a9:0d:ca:38:0f:e7:60:0f:d8:
        42:59:1d:73:0c:5b:95:f8:b3:e5:33:91:c5:fc:70:80:6d:07:
        0c:24:09:1e:fc:da:2a:ac:35:a9:d9:78:46:aa:0a:aa:f5:ea:
        2c:ff:94:c9:35:07:a8:4b:fa:11:bd:8c:8d:bd:5c:3a:01:48:
        ee:67:01:0d:1d:87:e2:4b:40:18:d8:01:b6:7a:08:60:97:a6:
        71:b2:5e:7b:5a:1f:cc:fb:08:90:36:b0:8d:7e:65:0b:00:cc:
        c3:38:6d:e1:b3:cc:ee:48:31:08:8a:58:c8:90:77:36:8d:db:
        a3:47:91:5f:61:06:2a:f9:4c:d4:0a:34:dd:74:91:fb:d0:63:
        04:78:f5:25:1e:17:08:d1:5b:56:09:75:df:45:7a:32:ae:62:
        61:ae:bb:d9
-----BEGIN CERTIFICATE-----
MIIENTCCAx2gAwIBAgIBATANBgkqhkiG9w0BAQUFADBHMQswCQYDVQQGEwJVUzEe
MBwGA1UEChMVRGV2ZWxvcGVyIENlcnRpZmljYXRlMRgwFgYDVQQDFA8qLmRldiBE
b21haW4gQ0EwHhcNMTIwMzIzMjEwNTQ5WhcNMzkwODA4MjEwNTQ5WjA9MQswCQYD
VQQGEwJVUzEeMBwGA1UEChMVRGV2ZWxvcGVyIENlcnRpZmljYXRlMQ4wDAYDVQQD
FAUqLmRldjCCASIwDQYJKoZIhvcNAQEBBQADggEPADCCAQoCggEBALi3kSW+WZ/2
4iaRoEAQC/kpZFJwxWVVLRcNcgGz9am0clu+Y+wPxEtHJMdDQwLdsTDnKwaOz/RT
ZrrbSckci0TWX37lBEQVPra8qjxfkK4AbKsCWlXJ7gEwU0opaqz6eohgak5VoIox
ZjZ0QebjG3m51zYXmX1fU2lK42cSi/ajgk92kEslXf2BpcEKWn0N49jltq0Wh4oM
KuABP5L4jgzHYbRXIf3HkeRGl7n4oJCfz3Qme487G9xdCT02I1kZ0ux2MRfjezVC
WVDa4/bE+kswhoA6PitAMwK8yXZ+42TSU3T5aQSbhFWpc50OtE3uABmuMY17E8wn
1wKh3bOHV7sCAwEAAaOCATQwggEwMAkGA1UdEwQCMAAwEQYJYIZIAYb4QgEBBAQD
AgZAMCwGCWCGSAGG+EIBDQQfFh1PcGVuU1NMIEdlbmVyYXRlZCBDZXJ0aWZpY2F0
ZTAdBgNVHQ4EFgQUKxC2x3X2jhstibez7TIw1b7TTaQwHwYDVR0jBBgwFoAUPnTn
QtugZoJAAjQwxzMqEWDnHSMwgaEGA1UdEQSBmTCBloINY290cmFkZWNvLmRldoIP
Ki5jb3RyYWRlY28uZGV2gg5sbGxyZXB0aWxlLmRldoIQKi5sbGxyZXB0aWxlLmRl
doIScmVwdGlsZXNvbmxpbmUuZGV2ghQqLnJlcHRpbGVzb25saW5lLmRldoISdmlz
dGFwZXRzdXBwbHkuZGV2ghQqLnZpc3RhcGV0c3VwcGx5LmRldjANBgkqhkiG9w0B
AQUFAAOCAQEAumiz4Ff1LZXBq/YgmNKCC0wGCTsn+a00vhGx2MN/VBILbVRTtLLJ
gEm09HytWicK+pfNM23/3lHqS+gqfCka2xF+b7D7s2mANdwNnqx/49HCR3AhHBl1
wJBArfpvJcdJOvAAqQ3KOA/nYA/YQlkdcwxblfiz5TORxfxwgG0HDCQJHvzaKqw1
qdl4RqoKqvXqLP+UyTUHqEv6Eb2Mjb1cOgFI7mcBDR2H4ktAGNgBtnoIYJemcbJe
e1ofzPsIkDawjX5lCwDMwzht4bPM7kgxCIpYyJB3No3bo0eRX2EGKvlM1Ao03XSR
+9BjBHj1JR4XCNFbVgl130V6Mq5iYa672Q==
-----END CERTIFICATE-----
